target datalayout = "e-m:e-p270:32:32-p271:32:32-p272:64:64-i64:64-i128:128-f80:128-n8:16:32:64-S128"
target triple = "x86_64-pc-linux-gnu"

%struct.code = type { i8, i8, i16 }
%struct.z_stream_s = type { ptr, i32, i64, ptr, i32, i64, ptr, ptr, ptr, ptr, ptr, i32, i64, i64 }
%struct.inflate_state = type { ptr, i32, i32, i32, i32, i32, i32, i64, i64, ptr, i32, i32, i32, i32, ptr, i64, i32, i32, i32, i32, ptr, ptr, i32, i32, i32, i32, i32, i32, ptr, [320 x i16], [288 x i16], [1444 x %struct.code], i32, i32, i32 }

; Function Attrs: nounwind uwtable
define internal i32 @inflateStateCheck(ptr noundef %0) #0 {
  %2 = alloca i32, align 4
  %3 = alloca ptr, align 8
  %4 = alloca ptr, align 8
  store ptr %0, ptr %3, align 8
  %5 = load ptr, ptr %3, align 8
  %6 = icmp eq ptr %5, null
  br i1 %6, label %17, label %7

7:                                                ; preds = %1
  %8 = load ptr, ptr %3, align 8
  %9 = getelementptr inbounds %struct.z_stream_s, ptr %8, i32 0, i32 8
  %10 = load ptr, ptr %9, align 8
  %11 = icmp eq ptr %10, null
  br i1 %11, label %17, label %12

12:                                               ; preds = %7
  %13 = load ptr, ptr %3, align 8
  %14 = getelementptr inbounds %struct.z_stream_s, ptr %13, i32 0, i32 9
  %15 = load ptr, ptr %14, align 8
  %16 = icmp eq ptr %15, null
  br i1 %16, label %17, label %18

17:                                               ; preds = %12, %7, %1
  store i32 1, ptr %2, align 4
  br label %42

18:                                               ; preds = %12
  %19 = load ptr, ptr %3, align 8
  %20 = getelementptr inbounds %struct.z_stream_s, ptr %19, i32 0, i32 7
  %21 = load ptr, ptr %20, align 8
  store ptr %21, ptr %4, align 8
  %22 = load ptr, ptr %4, align 8
  %23 = icmp eq ptr %22, null
  br i1 %23, label %40, label %24

24:                                               ; preds = %18
  %25 = load ptr, ptr %4, align 8
  %26 = getelementptr inbounds %struct.inflate_state, ptr %25, i32 0, i32 0
  %27 = load ptr, ptr %26, align 8
  %28 = load ptr, ptr %3, align 8
  %29 = icmp ne ptr %27, %28
  br i1 %29, label %40, label %30

30:                                               ; preds = %24
  %31 = load ptr, ptr %4, align 8
  %32 = getelementptr inbounds %struct.inflate_state, ptr %31, i32 0, i32 1
  %33 = load i32, ptr %32, align 8
  %34 = icmp ult i32 %33, 16180
  br i1 %34, label %40, label %35

35:                                               ; preds = %30
  %36 = load ptr, ptr %4, align 8
  %37 = getelementptr inbounds %struct.inflate_state, ptr %36, i32 0, i32 1
  %38 = load i32, ptr %37, align 8
  %39 = icmp ugt i32 %38, 16211
  br i1 %39, label %40, label %41

40:                                               ; preds = %35, %30, %24, %18
  store i32 1, ptr %2, align 4
  br label %42

41:                                               ; preds = %35
  store i32 0, ptr %2, align 4
  br label %42

42:                                               ; preds = %41, %40, %17
  %43 = load i32, ptr %2, align 4
  ret i32 %43
}

; Function Attrs: nounwind uwtable
define dso_local i32 @cm_zlib_inflateCopy(ptr noundef %0, ptr noundef %1) #0 {
  %3 = alloca i32, align 4
  %4 = alloca ptr, align 8
  %5 = alloca ptr, align 8
  %6 = alloca ptr, align 8
  %7 = alloca ptr, align 8
  %8 = alloca ptr, align 8
  %9 = alloca i32, align 4
  store ptr %0, ptr %4, align 8
  store ptr %1, ptr %5, align 8
  %10 = load ptr, ptr %5, align 8
  %11 = call i32 @inflateStateCheck(ptr noundef %10)
  %12 = icmp ne i32 %11, 0
  br i1 %12, label %16, label %13

13:                                               ; preds = %2
  %14 = load ptr, ptr %4, align 8
  %15 = icmp eq ptr %14, null
  br i1 %15, label %16, label %17

16:                                               ; preds = %13, %2
  store i32 -2, ptr %3, align 4
  br label %154

17:                                               ; preds = %13
  %18 = load ptr, ptr %5, align 8
  %19 = getelementptr inbounds %struct.z_stream_s, ptr %18, i32 0, i32 7
  %20 = load ptr, ptr %19, align 8
  store ptr %20, ptr %6, align 8
  %21 = load ptr, ptr %5, align 8
  %22 = getelementptr inbounds %struct.z_stream_s, ptr %21, i32 0, i32 8
  %23 = load ptr, ptr %22, align 8
  %24 = load ptr, ptr %5, align 8
  %25 = getelementptr inbounds %struct.z_stream_s, ptr %24, i32 0, i32 10
  %26 = load ptr, ptr %25, align 8
  %27 = call ptr %23(ptr noundef %26, i32 noundef 1, i32 noundef 7160)
  store ptr %27, ptr %7, align 8
  %28 = load ptr, ptr %7, align 8
  %29 = icmp eq ptr %28, null
  br i1 %29, label %30, label %31

30:                                               ; preds = %17
  store i32 -4, ptr %3, align 4
  br label %154

31:                                               ; preds = %17
  store ptr null, ptr %8, align 8
  %32 = load ptr, ptr %6, align 8
  %33 = getelementptr inbounds %struct.inflate_state, ptr %32, i32 0, i32 14
  %34 = load ptr, ptr %33, align 8
  %35 = icmp ne ptr %34, null
  br i1 %35, label %36, label %59

36:                                               ; preds = %31
  %37 = load ptr, ptr %5, align 8
  %38 = getelementptr inbounds %struct.z_stream_s, ptr %37, i32 0, i32 8
  %39 = load ptr, ptr %38, align 8
  %40 = load ptr, ptr %5, align 8
  %41 = getelementptr inbounds %struct.z_stream_s, ptr %40, i32 0, i32 10
  %42 = load ptr, ptr %41, align 8
  %43 = load ptr, ptr %6, align 8
  %44 = getelementptr inbounds %struct.inflate_state, ptr %43, i32 0, i32 10
  %45 = load i32, ptr %44, align 8
  %46 = shl i32 1, %45
  %47 = call ptr %39(ptr noundef %42, i32 noundef %46, i32 noundef 1)
  store ptr %47, ptr %8, align 8
  %48 = load ptr, ptr %8, align 8
  %49 = icmp eq ptr %48, null
  br i1 %49, label %50, label %58

50:                                               ; preds = %36
  %51 = load ptr, ptr %5, align 8
  %52 = getelementptr inbounds %struct.z_stream_s, ptr %51, i32 0, i32 9
  %53 = load ptr, ptr %52, align 8
  %54 = load ptr, ptr %5, align 8
  %55 = getelementptr inbounds %struct.z_stream_s, ptr %54, i32 0, i32 10
  %56 = load ptr, ptr %55, align 8
  %57 = load ptr, ptr %7, align 8
  call void %53(ptr noundef %56, ptr noundef %57)
  store i32 -4, ptr %3, align 4
  br label %154

58:                                               ; preds = %36
  br label %59

59:                                               ; preds = %58, %31
  %60 = load ptr, ptr %4, align 8
  %61 = load ptr, ptr %5, align 8
  call void @llvm.memcpy.p0.p0.i64(ptr align 1 %60, ptr align 1 %61, i64 112, i1 false)
  %62 = load ptr, ptr %7, align 8
  %63 = load ptr, ptr %6, align 8
  call void @llvm.memcpy.p0.p0.i64(ptr align 1 %62, ptr align 1 %63, i64 7160, i1 false)
  %64 = load ptr, ptr %4, align 8
  %65 = load ptr, ptr %7, align 8
  %66 = getelementptr inbounds %struct.inflate_state, ptr %65, i32 0, i32 0
  store ptr %64, ptr %66, align 8
  %67 = load ptr, ptr %6, align 8
  %68 = getelementptr inbounds %struct.inflate_state, ptr %67, i32 0, i32 20
  %69 = load ptr, ptr %68, align 8
  %70 = load ptr, ptr %6, align 8
  %71 = getelementptr inbounds %struct.inflate_state, ptr %70, i32 0, i32 31
  %72 = getelementptr inbounds [1444 x %struct.code], ptr %71, i64 0, i64 0
  %73 = icmp uge ptr %69, %72
  br i1 %73, label %74, label %117

74:                                               ; preds = %59
  %75 = load ptr, ptr %6, align 8
  %76 = getelementptr inbounds %struct.inflate_state, ptr %75, i32 0, i32 20
  %77 = load ptr, ptr %76, align 8
  %78 = load ptr, ptr %6, align 8
  %79 = getelementptr inbounds %struct.inflate_state, ptr %78, i32 0, i32 31
  %80 = getelementptr inbounds [1444 x %struct.code], ptr %79, i64 0, i64 0
  %81 = getelementptr inbounds %struct.code, ptr %80, i64 1444
  %82 = getelementptr inbounds %struct.code, ptr %81, i64 -1
  %83 = icmp ule ptr %77, %82
  br i1 %83, label %84, label %117

84:                                               ; preds = %74
  %85 = load ptr, ptr %7, align 8
  %86 = getelementptr inbounds %struct.inflate_state, ptr %85, i32 0, i32 31
  %87 = getelementptr inbounds [1444 x %struct.code], ptr %86, i64 0, i64 0
  %88 = load ptr, ptr %6, align 8
  %89 = getelementptr inbounds %struct.inflate_state, ptr %88, i32 0, i32 20
  %90 = load ptr, ptr %89, align 8
  %91 = load ptr, ptr %6, align 8
  %92 = getelementptr inbounds %struct.inflate_state, ptr %91, i32 0, i32 31
  %93 = getelementptr inbounds [1444 x %struct.code], ptr %92, i64 0, i64 0
  %94 = ptrtoint ptr %90 to i64
  %95 = ptrtoint ptr %93 to i64
  %96 = sub i64 %94, %95
  %97 = sdiv exact i64 %96, 4
  %98 = getelementptr inbounds %struct.code, ptr %87, i64 %97
  %99 = load ptr, ptr %7, align 8
  %100 = getelementptr inbounds %struct.inflate_state, ptr %99, i32 0, i32 20
  store ptr %98, ptr %100, align 8
  %101 = load ptr, ptr %7, align 8
  %102 = getelementptr inbounds %struct.inflate_state, ptr %101, i32 0, i32 31
  %103 = getelementptr inbounds [1444 x %struct.code], ptr %102, i64 0, i64 0
  %104 = load ptr, ptr %6, align 8
  %105 = getelementptr inbounds %struct.inflate_state, ptr %104, i32 0, i32 21
  %106 = load ptr, ptr %105, align 8
  %107 = load ptr, ptr %6, align 8
  %108 = getelementptr inbounds %struct.inflate_state, ptr %107, i32 0, i32 31
  %109 = getelementptr inbounds [1444 x %struct.code], ptr %108, i64 0, i64 0
  %110 = ptrtoint ptr %106 to i64
  %111 = ptrtoint ptr %109 to i64
  %112 = sub i64 %110, %111
  %113 = sdiv exact i64 %112, 4
  %114 = getelementptr inbounds %struct.code, ptr %103, i64 %113
  %115 = load ptr, ptr %7, align 8
  %116 = getelementptr inbounds %struct.inflate_state, ptr %115, i32 0, i32 21
  store ptr %114, ptr %116, align 8
  br label %117

117:                                              ; preds = %84, %74, %59
  %118 = load ptr, ptr %7, align 8
  %119 = getelementptr inbounds %struct.inflate_state, ptr %118, i32 0, i32 31
  %120 = getelementptr inbounds [1444 x %struct.code], ptr %119, i64 0, i64 0
  %121 = load ptr, ptr %6, align 8
  %122 = getelementptr inbounds %struct.inflate_state, ptr %121, i32 0, i32 28
  %123 = load ptr, ptr %122, align 8
  %124 = load ptr, ptr %6, align 8
  %125 = getelementptr inbounds %struct.inflate_state, ptr %124, i32 0, i32 31
  %126 = getelementptr inbounds [1444 x %struct.code], ptr %125, i64 0, i64 0
  %127 = ptrtoint ptr %123 to i64
  %128 = ptrtoint ptr %126 to i64
  %129 = sub i64 %127, %128
  %130 = sdiv exact i64 %129, 4
  %131 = getelementptr inbounds %struct.code, ptr %120, i64 %130
  %132 = load ptr, ptr %7, align 8
  %133 = getelementptr inbounds %struct.inflate_state, ptr %132, i32 0, i32 28
  store ptr %131, ptr %133, align 8
  %134 = load ptr, ptr %8, align 8
  %135 = icmp ne ptr %134, null
  br i1 %135, label %136, label %147

136:                                              ; preds = %117
  %137 = load ptr, ptr %6, align 8
  %138 = getelementptr inbounds %struct.inflate_state, ptr %137, i32 0, i32 10
  %139 = load i32, ptr %138, align 8
  %140 = shl i32 1, %139
  store i32 %140, ptr %9, align 4
  %141 = load ptr, ptr %8, align 8
  %142 = load ptr, ptr %6, align 8
  %143 = getelementptr inbounds %struct.inflate_state, ptr %142, i32 0, i32 14
  %144 = load ptr, ptr %143, align 8
  %145 = load i32, ptr %9, align 4
  %146 = zext i32 %145 to i64
  call void @llvm.memcpy.p0.p0.i64(ptr align 1 %141, ptr align 1 %144, i64 %146, i1 false)
  br label %147

147:                                              ; preds = %136, %117
  %148 = load ptr, ptr %8, align 8
  %149 = load ptr, ptr %7, align 8
  %150 = getelementptr inbounds %struct.inflate_state, ptr %149, i32 0, i32 14
  store ptr %148, ptr %150, align 8
  %151 = load ptr, ptr %7, align 8
  %152 = load ptr, ptr %4, align 8
  %153 = getelementptr inbounds %struct.z_stream_s, ptr %152, i32 0, i32 7
  store ptr %151, ptr %153, align 8
  store i32 0, ptr %3, align 4
  br label %154

154:                                              ; preds = %147, %50, %30, %16
  %155 = load i32, ptr %3, align 4
  ret i32 %155
}